; Function Attrs: nounwind sspstrong uwtable
define dso_local noundef i64 @rb_obj_clone(i64 noundef %0) local_unnamed_addr #2 {
  %2 = icmp eq i64 %0, 0
  %3 = and i64 %0, 7
  %4 = icmp ne i64 %3, 0
  %5 = or i1 %2, %4
  br i1 %5, label %special_object_p.exit.thread, label %6

6:                                                ; preds = %1
  %7 = inttoptr i64 %0 to ptr
  %8 = load i64, ptr %7, align 8, !tbaa !24
  %9 = trunc i64 %8 to i32
  %10 = and i32 %9, 31
  switch i32 %10, label %special_object_p.exit [
    i32 10, label %special_object_p.exit.thread
    i32 4, label %special_object_p.exit.thread
    i32 20, label %special_object_p.exit.thread
    i32 15, label %special_object_p.exit.thread
    i32 14, label %special_object_p.exit.thread
  ]

special_object_p.exit:                            ; preds = %6
  %11 = tail call fastcc i64 @mutable_obj_clone(i64 noundef %0, i64 noundef 4)
  br label %special_object_p.exit.thread

special_object_p.exit.thread:                     ; preds = %6, %6, %6, %6, %6, %1, %special_object_p.exit
  %.0 = phi i64 [ %11, %special_object_p.exit ], [ %0, %1 ], [ %0, %6 ], [ %0, %6 ], [ %0, %6 ], [ %0, %6 ], [ %0, %6 ]
  ret i64 %.0
}